; Function Attrs: inlinehint mustprogress nounwind uwtable
define internal fastcc void @_ZSt8_DestroyIPN12_GLOBAL__N_13JBTINSt7__cxx1112basic_stringIcSt11char_traitsIcESaIcEEEEES8_EvT_SA_RSaIT0_E(ptr noundef readonly %0, ptr noundef readnone %1) unnamed_addr #6 personality ptr @__gxx_personality_v0 {
  %.not4.i.i = icmp eq ptr %0, %1
  br i1 %.not4.i.i, label %_ZSt8_DestroyIPN12_GLOBAL__N_13JBTINSt7__cxx1112basic_stringIcSt11char_traitsIcESaIcEEEEEEvT_SA_.exit, label %.lr.ph.i.i

.lr.ph.i.i:                                       ; preds = %2, %_ZSt8_DestroyIN12_GLOBAL__N_13JBTINSt7__cxx1112basic_stringIcSt11char_traitsIcESaIcEEEEEEvPT_.exit.i.i
  %.05.i.i = phi ptr [ %11, %_ZSt8_DestroyIN12_GLOBAL__N_13JBTINSt7__cxx1112basic_stringIcSt11char_traitsIcESaIcEEEEEEvPT_.exit.i.i ], [ %0, %2 ]
  %3 = load ptr, ptr %.05.i.i, align 8, !tbaa !79
  %4 = getelementptr inbounds nuw i8, ptr %.05.i.i, i64 16
  %5 = icmp eq ptr %3, %4
  br i1 %5, label %_ZNKSt7__cxx1112basic_stringIcSt11char_traitsIcESaIcEE11_M_is_localEv.exit.thread.i.i.i.i.i.i, label %_ZNKSt7__cxx1112basic_stringIcSt11char_traitsIcESaIcEE11_M_is_localEv.exit.i.i.i.i.i.i

_ZNKSt7__cxx1112basic_stringIcSt11char_traitsIcESaIcEE11_M_is_localEv.exit.thread.i.i.i.i.i.i: ; preds = %.lr.ph.i.i
  %6 = getelementptr inbounds nuw i8, ptr %.05.i.i, i64 8
  %7 = load i64, ptr %6, align 8, !tbaa !80
  %8 = icmp ult i64 %7, 16
  tail call void @llvm.assume(i1 %8)
  br label %_ZSt8_DestroyIN12_GLOBAL__N_13JBTINSt7__cxx1112basic_stringIcSt11char_traitsIcESaIcEEEEEEvPT_.exit.i.i

_ZNKSt7__cxx1112basic_stringIcSt11char_traitsIcESaIcEE11_M_is_localEv.exit.i.i.i.i.i.i: ; preds = %.lr.ph.i.i
  %9 = load i64, ptr %4, align 8, !tbaa !81
  %10 = add i64 %9, 1
  tail call void @_ZdlPvm(ptr noundef %3, i64 noundef %10) #29
  br label %_ZSt8_DestroyIN12_GLOBAL__N_13JBTINSt7__cxx1112basic_stringIcSt11char_traitsIcESaIcEEEEEEvPT_.exit.i.i

_ZSt8_DestroyIN12_GLOBAL__N_13JBTINSt7__cxx1112basic_stringIcSt11char_traitsIcESaIcEEEEEEvPT_.exit.i.i: ; preds = %_ZNKSt7__cxx1112basic_stringIcSt11char_traitsIcESaIcEE11_M_is_localEv.exit.i.i.i.i.i.i, %_ZNKSt7__cxx1112basic_stringIcSt11char_traitsIcESaIcEE11_M_is_localEv.exit.thread.i.i.i.i.i.i
  %11 = getelementptr inbounds nuw i8, ptr %.05.i.i, i64 40
  %.not.i.i = icmp eq ptr %11, %1
  br i1 %.not.i.i, label %_ZSt8_DestroyIPN12_GLOBAL__N_13JBTINSt7__cxx1112basic_stringIcSt11char_traitsIcESaIcEEEEEEvT_SA_.exit, label %.lr.ph.i.i, !llvm.loop !863

_ZSt8_DestroyIPN12_GLOBAL__N_13JBTINSt7__cxx1112basic_stringIcSt11char_traitsIcESaIcEEEEEEvT_SA_.exit: ; preds = %_ZSt8_DestroyIN12_GLOBAL__N_13JBTINSt7__cxx1112basic_stringIcSt11char_traitsIcESaIcEEEEEEvPT_.exit.i.i, %2
  ret void
}